target datalayout = "e-m:e-p270:32:32-p271:32:32-p272:64:64-i64:64-i128:128-f80:128-n8:16:32:64-S128"
target triple = "x86_64-pc-linux-gnu"

%struct.H5FL_reg_head_t = type { i8, i32, i32, ptr, i64, ptr }
%struct.H5FL_arr_head_t = type { i8, i32, i64, ptr, i32, i64, i64, ptr }
%struct.H5D_bt2_ctx_t = type { i32, i64, i64, i32, ptr }

@H5_H5D_bt2_ctx_t_reg_free_list = internal global %struct.H5FL_reg_head_t { i8 0, i32 0, i32 0, ptr @.str.5, i64 40, ptr null }, align 8
@H5_uint32_t_arr_free_list = internal global %struct.H5FL_arr_head_t { i8 0, i32 0, i64 0, ptr @.str.6, i32 34, i64 0, i64 4, ptr null }, align 8

; Function Attrs: nounwind uwtable
define internal i32 @H5D__bt2_dst_context(ptr noundef %0) #0 {
  %2 = alloca ptr, align 8
  %3 = alloca ptr, align 8
  store ptr %0, ptr %2, align 8
  %4 = load ptr, ptr %2, align 8
  store ptr %4, ptr %3, align 8
  %5 = load ptr, ptr %3, align 8
  %6 = getelementptr inbounds %struct.H5D_bt2_ctx_t, ptr %5, i32 0, i32 4
  %7 = load ptr, ptr %6, align 8
  %8 = icmp ne ptr %7, null
  br i1 %8, label %9, label %14

9:                                                ; preds = %1
  %10 = load ptr, ptr %3, align 8
  %11 = getelementptr inbounds %struct.H5D_bt2_ctx_t, ptr %10, i32 0, i32 4
  %12 = load ptr, ptr %11, align 8
  %13 = call ptr @H5FL_arr_free(ptr noundef @H5_uint32_t_arr_free_list, ptr noundef %12)
  br label %14

14:                                               ; preds = %9, %1
  %15 = load ptr, ptr %3, align 8
  %16 = call ptr @H5FL_reg_free(ptr noundef @H5_H5D_bt2_ctx_t_reg_free_list, ptr noundef %15)
  store ptr %16, ptr %3, align 8
  ret i32 0
}