; Function Attrs: nounwind uwtable
define internal noundef i32 @H5D__bt2_dst_context(ptr noundef %0) #1 {
  %2 = getelementptr inbounds i8, ptr %0, i64 32
  %3 = load ptr, ptr %2, align 8
  %.not = icmp eq ptr %3, null
  br i1 %.not, label %6, label %4

4:                                                ; preds = %1
  %5 = tail call ptr @H5FL_arr_free(ptr noundef nonnull @H5_uint32_t_arr_free_list, ptr noundef nonnull %3) #14
  br label %6

6:                                                ; preds = %4, %1
  %7 = tail call ptr @H5FL_reg_free(ptr noundef nonnull @H5_H5D_bt2_ctx_t_reg_free_list, ptr noundef nonnull %0) #14
  ret i32 0
}